; Function Attrs: mustprogress uwtable
define void @_ZN4toku8locktree27sto_end_early_no_accountingEPv(ptr noundef nonnull align 8 dereferenceable(400) %0, ptr noundef %1) local_unnamed_addr #0 align 2 {
  tail call void @_ZN4toku8locktree33sto_migrate_buffer_ranges_to_treeEPv(ptr noundef nonnull align 8 dereferenceable(400) %0, ptr noundef %1)
  %3 = getelementptr inbounds nuw i8, ptr %0, i64 312
  %4 = tail call noundef i64 @_ZNK4toku12range_buffer17total_memory_sizeEv(ptr noundef nonnull align 8 dereferenceable(60) %3)
  %5 = load ptr, ptr %0, align 8, !tbaa !4
  %.not.i = icmp eq ptr %5, null
  br i1 %.not.i, label %_ZN4toku8locktree7sto_endEv.exit, label %6

6:                                                ; preds = %2
  tail call void @_ZN4toku16locktree_manager17note_mem_releasedEm(ptr noundef nonnull align 8 dereferenceable(392) %5, i64 noundef %4)
  br label %_ZN4toku8locktree7sto_endEv.exit

_ZN4toku8locktree7sto_endEv.exit:                 ; preds = %2, %6
  tail call void @_ZN4toku12range_buffer7destroyEv(ptr noundef nonnull align 8 dereferenceable(60) %3)
  tail call void @_ZN4toku12range_buffer6createEv(ptr noundef nonnull align 8 dereferenceable(60) %3)
  %7 = getelementptr inbounds nuw i8, ptr %0, i64 304
  store i64 0, ptr %7, align 8, !tbaa !45
  %8 = getelementptr inbounds nuw i8, ptr %0, i64 376
  store i32 0, ptr %8, align 8, !tbaa !53
  ret void
}